target datalayout = "e-m:e-p270:32:32-p271:32:32-p272:64:64-i64:64-i128:128-f80:128-n8:16:32:64-S128"
target triple = "x86_64-pc-linux-gnu"

%"class.icu_77::RelativeDateFormat" = type { %"class.icu_77::DateFormat", ptr, %"class.icu_77::UnicodeString", %"class.icu_77::UnicodeString", ptr, i32, [4 x i8], %"class.icu_77::Locale", i32, ptr, i8, i8, i8, i8, ptr }
%"class.icu_77::DateFormat" = type { %"class.icu_77::Format", ptr, ptr, %"class.icu_77::EnumSet", i32 }
%"class.icu_77::Format" = type { %"class.icu_77::UObject", ptr, ptr }
%"class.icu_77::UObject" = type { ptr }
%"class.icu_77::EnumSet" = type { i32 }
%"class.icu_77::UnicodeString" = type { %"class.icu_77::Replaceable", %"union.icu_77::UnicodeString::StackBufferOrFields" }
%"class.icu_77::Replaceable" = type { %"class.icu_77::UObject" }
%"union.icu_77::UnicodeString::StackBufferOrFields" = type { %struct.anon.0, [32 x i8] }
%struct.anon.0 = type { i16, i32, i32, ptr }
%"class.icu_77::Locale" = type <{ %"class.icu_77::UObject", [12 x i8], [6 x i8], [4 x i8], [2 x i8], i32, [4 x i8], ptr, [157 x i8], [3 x i8], ptr, i8, [7 x i8] }>
%"class.icu_77::SimpleFormatter" = type { [8 x i8], %"class.icu_77::UnicodeString" }

; Function Attrs: mustprogress uwtable
define linkonce_odr void @_ZN6icu_7715SimpleFormatterC2ERKS0_(ptr noundef nonnull align 8 dereferenceable(72) %0, ptr noundef nonnull align 8 dereferenceable(72) %1) unnamed_addr #1 comdat align 2 {
  %3 = alloca ptr, align 8
  %4 = alloca ptr, align 8
  store ptr %0, ptr %3, align 8, !tbaa !39
  store ptr %1, ptr %4, align 8, !tbaa !39
  %5 = load ptr, ptr %3, align 8
  %6 = getelementptr inbounds nuw %"class.icu_77::SimpleFormatter", ptr %5, i32 0, i32 1
  %7 = load ptr, ptr %4, align 8, !tbaa !39
  %8 = getelementptr inbounds nuw %"class.icu_77::SimpleFormatter", ptr %7, i32 0, i32 1
  call void @_ZN6icu_7713UnicodeStringC1ERKS0_(ptr noundef nonnull align 8 dereferenceable(64) %6, ptr noundef nonnull align 8 dereferenceable(64) %8)
  ret void
}

; Function Attrs: mustprogress uwtable
define void @_ZN6icu_7718RelativeDateFormatC2ERKS0_(ptr noundef nonnull align 8 dereferenceable(456) %0, ptr noundef nonnull align 8 dereferenceable(456) %1) unnamed_addr #1 align 2 personality ptr @__gxx_personality_v0 {
  %3 = alloca ptr, align 8
  %4 = alloca ptr, align 8
  %5 = alloca ptr, align 8
  %6 = alloca i32, align 4
  %7 = alloca ptr, align 8
  %8 = alloca i1, align 1
  store ptr %0, ptr %3, align 8, !tbaa !3
  store ptr %1, ptr %4, align 8, !tbaa !3
  %9 = load ptr, ptr %3, align 8
  %10 = load ptr, ptr %4, align 8, !tbaa !3
  call void @_ZN6icu_7710DateFormatC2ERKS0_(ptr noundef nonnull align 8 dereferenceable(48) %9, ptr noundef nonnull align 8 dereferenceable(48) %10)
  store ptr getelementptr inbounds inrange(-16, 272) ({ [36 x ptr] }, ptr @_ZTVN6icu_7718RelativeDateFormatE, i32 0, i32 0, i32 2), ptr %9, align 8, !tbaa !8
  %11 = getelementptr inbounds nuw %"class.icu_77::RelativeDateFormat", ptr %9, i32 0, i32 1
  store ptr null, ptr %11, align 8, !tbaa !10
  %12 = getelementptr inbounds nuw %"class.icu_77::RelativeDateFormat", ptr %9, i32 0, i32 2
  %13 = load ptr, ptr %4, align 8, !tbaa !3
  %14 = getelementptr inbounds nuw %"class.icu_77::RelativeDateFormat", ptr %13, i32 0, i32 2
  invoke void @_ZN6icu_7713UnicodeStringC1ERKS0_(ptr noundef nonnull align 8 dereferenceable(64) %12, ptr noundef nonnull align 8 dereferenceable(64) %14)
          to label %15 unwind label %65

15:                                               ; preds = %2
  %16 = getelementptr inbounds nuw %"class.icu_77::RelativeDateFormat", ptr %9, i32 0, i32 3
  %17 = load ptr, ptr %4, align 8, !tbaa !3
  %18 = getelementptr inbounds nuw %"class.icu_77::RelativeDateFormat", ptr %17, i32 0, i32 3
  invoke void @_ZN6icu_7713UnicodeStringC1ERKS0_(ptr noundef nonnull align 8 dereferenceable(64) %16, ptr noundef nonnull align 8 dereferenceable(64) %18)
          to label %19 unwind label %69

19:                                               ; preds = %15
  %20 = getelementptr inbounds nuw %"class.icu_77::RelativeDateFormat", ptr %9, i32 0, i32 4
  store ptr null, ptr %20, align 8, !tbaa !30
  %21 = getelementptr inbounds nuw %"class.icu_77::RelativeDateFormat", ptr %9, i32 0, i32 5
  %22 = load ptr, ptr %4, align 8, !tbaa !3
  %23 = getelementptr inbounds nuw %"class.icu_77::RelativeDateFormat", ptr %22, i32 0, i32 5
  %24 = load i32, ptr %23, align 8, !tbaa !31
  store i32 %24, ptr %21, align 8, !tbaa !31
  %25 = getelementptr inbounds nuw %"class.icu_77::RelativeDateFormat", ptr %9, i32 0, i32 7
  %26 = load ptr, ptr %4, align 8, !tbaa !3
  %27 = getelementptr inbounds nuw %"class.icu_77::RelativeDateFormat", ptr %26, i32 0, i32 7
  invoke void @_ZN6icu_776LocaleC1ERKS0_(ptr noundef nonnull align 8 dereferenceable(217) %25, ptr noundef nonnull align 8 dereferenceable(217) %27)
          to label %28 unwind label %73

28:                                               ; preds = %19
  %29 = getelementptr inbounds nuw %"class.icu_77::RelativeDateFormat", ptr %9, i32 0, i32 8
  %30 = load ptr, ptr %4, align 8, !tbaa !3
  %31 = getelementptr inbounds nuw %"class.icu_77::RelativeDateFormat", ptr %30, i32 0, i32 8
  %32 = load i32, ptr %31, align 8, !tbaa !32
  store i32 %32, ptr %29, align 8, !tbaa !32
  %33 = getelementptr inbounds nuw %"class.icu_77::RelativeDateFormat", ptr %9, i32 0, i32 9
  store ptr null, ptr %33, align 8, !tbaa !33
  %34 = getelementptr inbounds nuw %"class.icu_77::RelativeDateFormat", ptr %9, i32 0, i32 10
  %35 = load ptr, ptr %4, align 8, !tbaa !3
  %36 = getelementptr inbounds nuw %"class.icu_77::RelativeDateFormat", ptr %35, i32 0, i32 10
  %37 = load i8, ptr %36, align 8, !tbaa !34
  store i8 %37, ptr %34, align 8, !tbaa !34
  %38 = getelementptr inbounds nuw %"class.icu_77::RelativeDateFormat", ptr %9, i32 0, i32 11
  %39 = load ptr, ptr %4, align 8, !tbaa !3
  %40 = getelementptr inbounds nuw %"class.icu_77::RelativeDateFormat", ptr %39, i32 0, i32 11
  %41 = load i8, ptr %40, align 1, !tbaa !35
  store i8 %41, ptr %38, align 1, !tbaa !35
  %42 = getelementptr inbounds nuw %"class.icu_77::RelativeDateFormat", ptr %9, i32 0, i32 12
  %43 = load ptr, ptr %4, align 8, !tbaa !3
  %44 = getelementptr inbounds nuw %"class.icu_77::RelativeDateFormat", ptr %43, i32 0, i32 12
  %45 = load i8, ptr %44, align 2, !tbaa !36
  store i8 %45, ptr %42, align 2, !tbaa !36
  %46 = getelementptr inbounds nuw %"class.icu_77::RelativeDateFormat", ptr %9, i32 0, i32 13
  %47 = load ptr, ptr %4, align 8, !tbaa !3
  %48 = getelementptr inbounds nuw %"class.icu_77::RelativeDateFormat", ptr %47, i32 0, i32 13
  %49 = load i8, ptr %48, align 1, !tbaa !37
  store i8 %49, ptr %46, align 1, !tbaa !37
  %50 = getelementptr inbounds nuw %"class.icu_77::RelativeDateFormat", ptr %9, i32 0, i32 14
  store ptr null, ptr %50, align 8, !tbaa !38
  %51 = load ptr, ptr %4, align 8, !tbaa !3
  %52 = getelementptr inbounds nuw %"class.icu_77::RelativeDateFormat", ptr %51, i32 0, i32 1
  %53 = load ptr, ptr %52, align 8, !tbaa !10
  %54 = icmp ne ptr %53, null
  br i1 %54, label %55, label %81

55:                                               ; preds = %28
  %56 = load ptr, ptr %4, align 8, !tbaa !3
  %57 = getelementptr inbounds nuw %"class.icu_77::RelativeDateFormat", ptr %56, i32 0, i32 1
  %58 = load ptr, ptr %57, align 8, !tbaa !10
  %59 = load ptr, ptr %58, align 8, !tbaa !8
  %60 = getelementptr inbounds ptr, ptr %59, i64 4
  %61 = load ptr, ptr %60, align 8
  %62 = invoke noundef ptr %61(ptr noundef nonnull align 8 dereferenceable(528) %58)
          to label %63 unwind label %77

63:                                               ; preds = %55
  %64 = getelementptr inbounds nuw %"class.icu_77::RelativeDateFormat", ptr %9, i32 0, i32 1
  store ptr %62, ptr %64, align 8, !tbaa !10
  br label %81

65:                                               ; preds = %2
  %66 = landingpad { ptr, i32 }
          cleanup
  %67 = extractvalue { ptr, i32 } %66, 0
  store ptr %67, ptr %5, align 8
  %68 = extractvalue { ptr, i32 } %66, 1
  store i32 %68, ptr %6, align 4
  br label %148

69:                                               ; preds = %15
  %70 = landingpad { ptr, i32 }
          cleanup
  %71 = extractvalue { ptr, i32 } %70, 0
  store ptr %71, ptr %5, align 8
  %72 = extractvalue { ptr, i32 } %70, 1
  store i32 %72, ptr %6, align 4
  br label %147

73:                                               ; preds = %19
  %74 = landingpad { ptr, i32 }
          cleanup
  %75 = extractvalue { ptr, i32 } %74, 0
  store ptr %75, ptr %5, align 8
  %76 = extractvalue { ptr, i32 } %74, 1
  store i32 %76, ptr %6, align 4
  br label %146

77:                                               ; preds = %134, %109, %55
  %78 = landingpad { ptr, i32 }
          cleanup
  %79 = extractvalue { ptr, i32 } %78, 0
  store ptr %79, ptr %5, align 8
  %80 = extractvalue { ptr, i32 } %78, 1
  store i32 %80, ptr %6, align 4
  br label %145

81:                                               ; preds = %63, %28
  %82 = load ptr, ptr %4, align 8, !tbaa !3
  %83 = getelementptr inbounds nuw %"class.icu_77::RelativeDateFormat", ptr %82, i32 0, i32 4
  %84 = load ptr, ptr %83, align 8, !tbaa !30
  %85 = icmp ne ptr %84, null
  br i1 %85, label %86, label %105

86:                                               ; preds = %81
  %87 = call noundef ptr @_ZN6icu_777UMemorynwEm(i64 noundef 72) #13
  %88 = icmp eq ptr %87, null
  store i1 false, ptr %8, align 1
  br i1 %88, label %94, label %89

89:                                               ; preds = %86
  store ptr %87, ptr %7, align 8
  store i1 true, ptr %8, align 1
  %90 = load ptr, ptr %4, align 8, !tbaa !3
  %91 = getelementptr inbounds nuw %"class.icu_77::RelativeDateFormat", ptr %90, i32 0, i32 4
  %92 = load ptr, ptr %91, align 8, !tbaa !30
  invoke void @_ZN6icu_7715SimpleFormatterC2ERKS0_(ptr noundef nonnull align 8 dereferenceable(72) %87, ptr noundef nonnull align 8 dereferenceable(72) %92)
          to label %93 unwind label %97

93:                                               ; preds = %89
  br label %94

94:                                               ; preds = %93, %86
  %95 = phi ptr [ %87, %93 ], [ null, %86 ]
  %96 = getelementptr inbounds nuw %"class.icu_77::RelativeDateFormat", ptr %9, i32 0, i32 4
  store ptr %95, ptr %96, align 8, !tbaa !30
  br label %105

97:                                               ; preds = %89
  %98 = landingpad { ptr, i32 }
          cleanup
  %99 = extractvalue { ptr, i32 } %98, 0
  store ptr %99, ptr %5, align 8
  %100 = extractvalue { ptr, i32 } %98, 1
  store i32 %100, ptr %6, align 4
  %101 = load i1, ptr %8, align 1
  br i1 %101, label %102, label %104

102:                                              ; preds = %97
  %103 = load ptr, ptr %7, align 8
  call void @_ZN6icu_777UMemorydlEPv(ptr noundef %103) #13
  br label %104

104:                                              ; preds = %102, %97
  br label %145

105:                                              ; preds = %94, %81
  %106 = getelementptr inbounds nuw %"class.icu_77::RelativeDateFormat", ptr %9, i32 0, i32 8
  %107 = load i32, ptr %106, align 8, !tbaa !32
  %108 = icmp sgt i32 %107, 0
  br i1 %108, label %109, label %129

109:                                              ; preds = %105
  %110 = getelementptr inbounds nuw %"class.icu_77::RelativeDateFormat", ptr %9, i32 0, i32 8
  %111 = load i32, ptr %110, align 8, !tbaa !32
  %112 = sext i32 %111 to i64
  %113 = mul i64 16, %112
  %114 = invoke noalias ptr @uprv_malloc_77(i64 noundef %113) #14
          to label %115 unwind label %77

115:                                              ; preds = %109
  %116 = getelementptr inbounds nuw %"class.icu_77::RelativeDateFormat", ptr %9, i32 0, i32 9
  store ptr %114, ptr %116, align 8, !tbaa !33
  br label %117

117:                                              ; preds = %115
  %118 = getelementptr inbounds nuw %"class.icu_77::RelativeDateFormat", ptr %9, i32 0, i32 9
  %119 = load ptr, ptr %118, align 8, !tbaa !33
  %120 = load ptr, ptr %4, align 8, !tbaa !3
  %121 = getelementptr inbounds nuw %"class.icu_77::RelativeDateFormat", ptr %120, i32 0, i32 9
  %122 = load ptr, ptr %121, align 8, !tbaa !33
  %123 = getelementptr inbounds nuw %"class.icu_77::RelativeDateFormat", ptr %9, i32 0, i32 8
  %124 = load i32, ptr %123, align 8, !tbaa !32
  %125 = sext i32 %124 to i64
  %126 = mul i64 16, %125
  call void @llvm.memcpy.p0.p0.i64(ptr align 8 %119, ptr align 8 %122, i64 %126, i1 false)
  br label %127

127:                                              ; preds = %117
  br label %128

128:                                              ; preds = %127
  br label %129

129:                                              ; preds = %128, %105
  %130 = load ptr, ptr %4, align 8, !tbaa !3
  %131 = getelementptr inbounds nuw %"class.icu_77::RelativeDateFormat", ptr %130, i32 0, i32 14
  %132 = load ptr, ptr %131, align 8, !tbaa !38
  %133 = icmp ne ptr %132, null
  br i1 %133, label %134, label %144

134:                                              ; preds = %129
  %135 = load ptr, ptr %4, align 8, !tbaa !3
  %136 = getelementptr inbounds nuw %"class.icu_77::RelativeDateFormat", ptr %135, i32 0, i32 14
  %137 = load ptr, ptr %136, align 8, !tbaa !38
  %138 = load ptr, ptr %137, align 8, !tbaa !8
  %139 = getelementptr inbounds ptr, ptr %138, i64 4
  %140 = load ptr, ptr %139, align 8
  %141 = invoke noundef ptr %140(ptr noundef nonnull align 8 dereferenceable(32) %137)
          to label %142 unwind label %77

142:                                              ; preds = %134
  %143 = getelementptr inbounds nuw %"class.icu_77::RelativeDateFormat", ptr %9, i32 0, i32 14
  store ptr %141, ptr %143, align 8, !tbaa !38
  br label %144

144:                                              ; preds = %142, %129
  ret void

145:                                              ; preds = %104, %77
  call void @_ZN6icu_776LocaleD1Ev(ptr noundef nonnull align 8 dereferenceable(217) %25) #13
  br label %146

146:                                              ; preds = %145, %73
  call void @_ZN6icu_7713UnicodeStringD1Ev(ptr noundef nonnull align 8 dereferenceable(64) %16) #13
  br label %147

147:                                              ; preds = %146, %69
  call void @_ZN6icu_7713UnicodeStringD1Ev(ptr noundef nonnull align 8 dereferenceable(64) %12) #13
  br label %148

148:                                              ; preds = %147, %65
  call void @_ZN6icu_7710DateFormatD2Ev(ptr noundef nonnull align 8 dereferenceable(48) %9) #13
  br label %149

149:                                              ; preds = %148
  %150 = load ptr, ptr %5, align 8
  %151 = load i32, ptr %6, align 4
  %152 = insertvalue { ptr, i32 } poison, ptr %150, 0
  %153 = insertvalue { ptr, i32 } %152, i32 %151, 1
  resume { ptr, i32 } %153
}