; Function Attrs: mustprogress uwtable
define void @_ZN6icu_7718RelativeDateFormatC2ERKS0_(ptr noundef nonnull align 8 dereferenceable(456) %0, ptr noundef nonnull align 8 dereferenceable(456) %1) unnamed_addr #1 align 2 personality ptr @__gxx_personality_v0 {
  tail call void @_ZN6icu_7710DateFormatC2ERKS0_(ptr noundef nonnull align 8 dereferenceable(48) %0, ptr noundef nonnull align 8 dereferenceable(48) %1)
  store ptr getelementptr inbounds nuw inrange(-16, 272) (i8, ptr @_ZTVN6icu_7718RelativeDateFormatE, i64 16), ptr %0, align 8, !tbaa !3
  %3 = getelementptr inbounds nuw i8, ptr %0, i64 48
  store ptr null, ptr %3, align 8, !tbaa !6
  %4 = getelementptr inbounds nuw i8, ptr %0, i64 56
  %5 = getelementptr inbounds nuw i8, ptr %1, i64 56
  invoke void @_ZN6icu_7713UnicodeStringC1ERKS0_(ptr noundef nonnull align 8 dereferenceable(64) %4, ptr noundef nonnull align 8 dereferenceable(64) %5)
          to label %6 unwind label %42

6:                                                ; preds = %2
  %7 = getelementptr inbounds nuw i8, ptr %0, i64 120
  %8 = getelementptr inbounds nuw i8, ptr %1, i64 120
  invoke void @_ZN6icu_7713UnicodeStringC1ERKS0_(ptr noundef nonnull align 8 dereferenceable(64) %7, ptr noundef nonnull align 8 dereferenceable(64) %8)
          to label %9 unwind label %44

9:                                                ; preds = %6
  %10 = getelementptr inbounds nuw i8, ptr %0, i64 184
  store ptr null, ptr %10, align 8, !tbaa !28
  %11 = getelementptr inbounds nuw i8, ptr %0, i64 192
  %12 = getelementptr inbounds nuw i8, ptr %1, i64 192
  %13 = load i32, ptr %12, align 8, !tbaa !29
  store i32 %13, ptr %11, align 8, !tbaa !29
  %14 = getelementptr inbounds nuw i8, ptr %0, i64 200
  %15 = getelementptr inbounds nuw i8, ptr %1, i64 200
  invoke void @_ZN6icu_776LocaleC1ERKS0_(ptr noundef nonnull align 8 dereferenceable(217) %14, ptr noundef nonnull align 8 dereferenceable(217) %15)
          to label %16 unwind label %46

16:                                               ; preds = %9
  %17 = getelementptr inbounds nuw i8, ptr %0, i64 424
  %18 = getelementptr inbounds nuw i8, ptr %1, i64 424
  %19 = load i32, ptr %18, align 8, !tbaa !30
  store i32 %19, ptr %17, align 8, !tbaa !30
  %20 = getelementptr inbounds nuw i8, ptr %0, i64 432
  store ptr null, ptr %20, align 8, !tbaa !31
  %21 = getelementptr inbounds nuw i8, ptr %0, i64 440
  %22 = getelementptr inbounds nuw i8, ptr %1, i64 440
  %23 = load i8, ptr %22, align 8, !tbaa !32
  store i8 %23, ptr %21, align 8, !tbaa !32
  %24 = getelementptr inbounds nuw i8, ptr %0, i64 441
  %25 = getelementptr inbounds nuw i8, ptr %1, i64 441
  %26 = load i8, ptr %25, align 1, !tbaa !33
  store i8 %26, ptr %24, align 1, !tbaa !33
  %27 = getelementptr inbounds nuw i8, ptr %0, i64 442
  %28 = getelementptr inbounds nuw i8, ptr %1, i64 442
  %29 = load i8, ptr %28, align 2, !tbaa !34
  store i8 %29, ptr %27, align 2, !tbaa !34
  %30 = getelementptr inbounds nuw i8, ptr %0, i64 443
  %31 = getelementptr inbounds nuw i8, ptr %1, i64 443
  %32 = load i8, ptr %31, align 1, !tbaa !35
  store i8 %32, ptr %30, align 1, !tbaa !35
  %33 = getelementptr inbounds nuw i8, ptr %0, i64 448
  store ptr null, ptr %33, align 8, !tbaa !36
  %34 = getelementptr inbounds nuw i8, ptr %1, i64 48
  %35 = load ptr, ptr %34, align 8, !tbaa !6
  %.not = icmp eq ptr %35, null
  br i1 %.not, label %50, label %36

36:                                               ; preds = %16
  %37 = load ptr, ptr %35, align 8, !tbaa !3
  %38 = getelementptr inbounds nuw i8, ptr %37, i64 32
  %39 = load ptr, ptr %38, align 8
  %40 = invoke noundef ptr %39(ptr noundef nonnull align 8 dereferenceable(528) %35)
          to label %41 unwind label %48

41:                                               ; preds = %36
  store ptr %40, ptr %3, align 8, !tbaa !6
  br label %50

42:                                               ; preds = %2
  %43 = landingpad { ptr, i32 }
          cleanup
  br label %88

44:                                               ; preds = %6
  %45 = landingpad { ptr, i32 }
          cleanup
  br label %87

46:                                               ; preds = %9
  %47 = landingpad { ptr, i32 }
          cleanup
  br label %86

48:                                               ; preds = %78, %65, %36
  %49 = landingpad { ptr, i32 }
          cleanup
  br label %85

50:                                               ; preds = %41, %16
  %51 = getelementptr inbounds nuw i8, ptr %1, i64 184
  %52 = load ptr, ptr %51, align 8, !tbaa !28
  %.not29 = icmp eq ptr %52, null
  br i1 %.not29, label %62, label %53

53:                                               ; preds = %50
  %54 = tail call noundef ptr @_ZN6icu_777UMemorynwEm(i64 noundef 72) #15
  %55 = icmp eq ptr %54, null
  br i1 %55, label %_ZN6icu_7715SimpleFormatterC2ERKS0_.exit, label %56

56:                                               ; preds = %53
  %57 = load ptr, ptr %51, align 8, !tbaa !28
  %58 = getelementptr inbounds nuw i8, ptr %54, i64 8
  %59 = getelementptr inbounds nuw i8, ptr %57, i64 8
  invoke void @_ZN6icu_7713UnicodeStringC1ERKS0_(ptr noundef nonnull align 8 dereferenceable(64) %58, ptr noundef nonnull align 8 dereferenceable(64) %59)
          to label %_ZN6icu_7715SimpleFormatterC2ERKS0_.exit unwind label %60

_ZN6icu_7715SimpleFormatterC2ERKS0_.exit:         ; preds = %56, %53
  store ptr %54, ptr %10, align 8, !tbaa !28
  br label %62

60:                                               ; preds = %56
  %61 = landingpad { ptr, i32 }
          cleanup
  tail call void @_ZN6icu_777UMemorydlEPv(ptr noundef nonnull %54) #15
  br label %85

62:                                               ; preds = %_ZN6icu_7715SimpleFormatterC2ERKS0_.exit, %50
  %63 = load i32, ptr %17, align 8, !tbaa !30
  %64 = icmp sgt i32 %63, 0
  br i1 %64, label %65, label %75

65:                                               ; preds = %62
  %66 = zext nneg i32 %63 to i64
  %67 = shl nuw nsw i64 %66, 4
  %68 = invoke noalias ptr @uprv_malloc_77(i64 noundef %67) #16
          to label %69 unwind label %48

69:                                               ; preds = %65
  store ptr %68, ptr %20, align 8, !tbaa !31
  %70 = getelementptr inbounds nuw i8, ptr %1, i64 432
  %71 = load ptr, ptr %70, align 8, !tbaa !31
  %72 = load i32, ptr %17, align 8, !tbaa !30
  %73 = sext i32 %72 to i64
  %74 = shl nsw i64 %73, 4
  tail call void @llvm.memcpy.p0.p0.i64(ptr align 8 %68, ptr align 8 %71, i64 %74, i1 false)
  br label %75

75:                                               ; preds = %69, %62
  %76 = getelementptr inbounds nuw i8, ptr %1, i64 448
  %77 = load ptr, ptr %76, align 8, !tbaa !36
  %.not30 = icmp eq ptr %77, null
  br i1 %.not30, label %84, label %78

78:                                               ; preds = %75
  %79 = load ptr, ptr %77, align 8, !tbaa !3
  %80 = getelementptr inbounds nuw i8, ptr %79, i64 32
  %81 = load ptr, ptr %80, align 8
  %82 = invoke noundef ptr %81(ptr noundef nonnull align 8 dereferenceable(32) %77)
          to label %83 unwind label %48

83:                                               ; preds = %78
  store ptr %82, ptr %33, align 8, !tbaa !36
  br label %84

84:                                               ; preds = %83, %75
  ret void

85:                                               ; preds = %60, %48
  %.pn = phi { ptr, i32 } [ %49, %48 ], [ %61, %60 ]
  tail call void @_ZN6icu_776LocaleD1Ev(ptr noundef nonnull align 8 dereferenceable(217) %14) #15
  br label %86

86:                                               ; preds = %85, %46
  %.pn.pn = phi { ptr, i32 } [ %.pn, %85 ], [ %47, %46 ]
  tail call void @_ZN6icu_7713UnicodeStringD1Ev(ptr noundef nonnull align 8 dereferenceable(64) %7) #15
  br label %87

87:                                               ; preds = %86, %44
  %.pn.pn.pn = phi { ptr, i32 } [ %.pn.pn, %86 ], [ %45, %44 ]
  tail call void @_ZN6icu_7713UnicodeStringD1Ev(ptr noundef nonnull align 8 dereferenceable(64) %4) #15
  br label %88

88:                                               ; preds = %87, %42
  %.pn.pn.pn.pn = phi { ptr, i32 } [ %.pn.pn.pn, %87 ], [ %43, %42 ]
  tail call void @_ZN6icu_7710DateFormatD2Ev(ptr noundef nonnull align 8 dereferenceable(48) %0) #15
  resume { ptr, i32 } %.pn.pn.pn.pn
}